; Function Attrs: mustprogress uwtable
define dso_local void @_ZN7cmCTest9DecodeURLERKNSt7__cxx1112basic_stringIcSt11char_traitsIcESaIcEEE(ptr dead_on_unwind noalias nonnull writable sret(%"class.std::__cxx11::basic_string") align 8 %0, ptr noundef nonnull align 8 dereferenceable(32) %1) local_unnamed_addr #3 align 2 personality ptr @__gxx_personality_v0 {
  %3 = alloca [3 x i8], align 1
  tail call void @_ZNSt7__cxx1112basic_stringIcSt11char_traitsIcESaIcEEC1Ev(ptr noundef nonnull align 8 dereferenceable(32) %0) #28
  %4 = tail call noundef ptr @_ZNKSt7__cxx1112basic_stringIcSt11char_traitsIcESaIcEE5c_strEv(ptr noundef nonnull align 8 dereferenceable(32) %1) #28
  %5 = getelementptr inbounds i8, ptr %3, i64 1
  %6 = getelementptr inbounds i8, ptr %3, i64 2
  br label %7

7:                                                ; preds = %27, %2
  %.0 = phi ptr [ %4, %2 ], [ %28, %27 ]
  %8 = load i8, ptr %.0, align 1
  switch i8 %8, label %25 [
    i8 0, label %29
    i8 37, label %9
  ]

9:                                                ; preds = %7
  %10 = getelementptr inbounds i8, ptr %.0, i64 1
  %11 = load i8, ptr %10, align 1
  %12 = sext i8 %11 to i32
  %13 = tail call i32 @isxdigit(i32 noundef %12) #31
  %.not13 = icmp eq i32 %13, 0
  br i1 %.not13, label %25, label %14

14:                                               ; preds = %9
  %15 = getelementptr inbounds i8, ptr %.0, i64 2
  %16 = load i8, ptr %15, align 1
  %17 = sext i8 %16 to i32
  %18 = tail call i32 @isxdigit(i32 noundef %17) #31
  %.not14 = icmp eq i32 %18, 0
  br i1 %.not14, label %25, label %19

19:                                               ; preds = %14
  store i8 %11, ptr %3, align 1
  store i8 %16, ptr %5, align 1
  store i8 0, ptr %6, align 1
  %20 = call i64 @strtoul(ptr nocapture noundef nonnull %3, ptr noundef null, i32 noundef 16) #28
  %21 = trunc i64 %20 to i8
  %22 = invoke noundef nonnull align 8 dereferenceable(32) ptr @_ZNSt7__cxx1112basic_stringIcSt11char_traitsIcESaIcEE6appendEmc(ptr noundef nonnull align 8 dereferenceable(32) %0, i64 noundef 1, i8 noundef signext %21)
          to label %27 unwind label %23

23:                                               ; preds = %25, %19
  %24 = landingpad { ptr, i32 }
          cleanup
  tail call void @_ZNSt7__cxx1112basic_stringIcSt11char_traitsIcESaIcEED1Ev(ptr noundef nonnull align 8 dereferenceable(32) %0) #28
  resume { ptr, i32 } %24

25:                                               ; preds = %7, %14, %9
  %26 = invoke noundef nonnull align 8 dereferenceable(32) ptr @_ZNSt7__cxx1112basic_stringIcSt11char_traitsIcESaIcEE6appendEmc(ptr noundef nonnull align 8 dereferenceable(32) %0, i64 noundef 1, i8 noundef signext %8)
          to label %27 unwind label %23

27:                                               ; preds = %19, %25
  %.1 = phi ptr [ %.0, %25 ], [ %15, %19 ]
  %28 = getelementptr inbounds i8, ptr %.1, i64 1
  br label %7, !llvm.loop !15

29:                                               ; preds = %7
  ret void
}